target datalayout = "e-m:e-p270:32:32-p271:32:32-p272:64:64-i64:64-i128:128-f80:128-n8:16:32:64-S128"
target triple = "x86_64-pc-linux-gnu"

%"class.std::vector.0" = type { %"struct.std::_Vector_base.1" }
%"struct.std::_Vector_base.1" = type { %"struct.std::_Vector_base<int, std::allocator<int>>::_Vector_impl" }
%"struct.std::_Vector_base<int, std::allocator<int>>::_Vector_impl" = type { %"struct.std::_Vector_base<int, std::allocator<int>>::_Vector_impl_data" }
%"struct.std::_Vector_base<int, std::allocator<int>>::_Vector_impl_data" = type { ptr, ptr, ptr }
%"struct.faiss::HNSW::MinimaxHeap" = type { i32, i32, i32, %"class.std::vector.0", %"class.std::vector.56" }
%"class.std::vector.56" = type { %"struct.std::_Vector_base.57" }
%"struct.std::_Vector_base.57" = type { %"struct.std::_Vector_base<float, std::allocator<float>>::_Vector_impl" }
%"struct.std::_Vector_base<float, std::allocator<float>>::_Vector_impl" = type { %"struct.std::_Vector_base<float, std::allocator<float>>::_Vector_impl_data" }
%"struct.std::_Vector_base<float, std::allocator<float>>::_Vector_impl_data" = type { ptr, ptr, ptr }

; Function Attrs: mustprogress nounwind uwtable
define linkonce_odr noundef nonnull align 4 dereferenceable(4) ptr @_ZNSt6vectorIfSaIfEEixEm(ptr noundef nonnull align 8 dereferenceable(24) %0, i64 noundef %1) #5 comdat align 2 {
  %3 = alloca ptr, align 8
  %4 = alloca i64, align 8
  store ptr %0, ptr %3, align 8, !tbaa !425
  store i64 %1, ptr %4, align 8, !tbaa !19
  %5 = load ptr, ptr %3, align 8
  %6 = getelementptr inbounds nuw %"struct.std::_Vector_base.57", ptr %5, i32 0, i32 0
  %7 = getelementptr inbounds nuw %"struct.std::_Vector_base<float, std::allocator<float>>::_Vector_impl_data", ptr %6, i32 0, i32 0
  %8 = load ptr, ptr %7, align 8, !tbaa !427
  %9 = load i64, ptr %4, align 8, !tbaa !19
  %10 = getelementptr inbounds nuw float, ptr %8, i64 %9
  ret ptr %10
}

; Function Attrs: mustprogress nounwind uwtable
define linkonce_odr noundef nonnull align 4 dereferenceable(4) ptr @_ZNSt6vectorIiSaIiEEixEm(ptr noundef nonnull align 8 dereferenceable(24) %0, i64 noundef %1) #5 comdat align 2 {
  %3 = alloca ptr, align 8
  %4 = alloca i64, align 8
  store ptr %0, ptr %3, align 8, !tbaa !11
  store i64 %1, ptr %4, align 8, !tbaa !19
  %5 = load ptr, ptr %3, align 8
  %6 = getelementptr inbounds nuw %"struct.std::_Vector_base.1", ptr %5, i32 0, i32 0
  %7 = getelementptr inbounds nuw %"struct.std::_Vector_base<int, std::allocator<int>>::_Vector_impl_data", ptr %6, i32 0, i32 0
  %8 = load ptr, ptr %7, align 8, !tbaa !16
  %9 = load i64, ptr %4, align 8, !tbaa !19
  %10 = getelementptr inbounds nuw i32, ptr %8, i64 %9
  ret ptr %10
}

; Function Attrs: mustprogress nounwind uwtable
define noundef i32 @_ZN5faiss4HNSW11MinimaxHeap7pop_minEPf(ptr noundef nonnull align 8 dereferenceable(64) %0, ptr noundef %1) #5 align 2 {
  %3 = alloca i32, align 4
  %4 = alloca ptr, align 8
  %5 = alloca ptr, align 8
  %6 = alloca i32, align 4
  %7 = alloca i32, align 4
  %8 = alloca i32, align 4
  %9 = alloca float, align 4
  %10 = alloca i32, align 4
  store ptr %0, ptr %4, align 8, !tbaa !392
  store ptr %1, ptr %5, align 8, !tbaa !314
  %11 = load ptr, ptr %4, align 8
  call void @llvm.lifetime.start.p0(i64 4, ptr %6) #3
  %12 = getelementptr inbounds nuw %"struct.faiss::HNSW::MinimaxHeap", ptr %11, i32 0, i32 1
  %13 = load i32, ptr %12, align 4, !tbaa !428
  %14 = sub nsw i32 %13, 1
  store i32 %14, ptr %6, align 4, !tbaa !9
  br label %15

15:                                               ; preds = %26, %2
  %16 = load i32, ptr %6, align 4, !tbaa !9
  %17 = icmp sge i32 %16, 0
  br i1 %17, label %18, label %29

18:                                               ; preds = %15
  %19 = getelementptr inbounds nuw %"struct.faiss::HNSW::MinimaxHeap", ptr %11, i32 0, i32 3
  %20 = load i32, ptr %6, align 4, !tbaa !9
  %21 = sext i32 %20 to i64
  %22 = call noundef nonnull align 4 dereferenceable(4) ptr @_ZNSt6vectorIiSaIiEEixEm(ptr noundef nonnull align 8 dereferenceable(24) %19, i64 noundef %21) #3
  %23 = load i32, ptr %22, align 4, !tbaa !9
  %24 = icmp ne i32 %23, -1
  br i1 %24, label %25, label %26

25:                                               ; preds = %18
  br label %29

26:                                               ; preds = %18
  %27 = load i32, ptr %6, align 4, !tbaa !9
  %28 = add nsw i32 %27, -1
  store i32 %28, ptr %6, align 4, !tbaa !9
  br label %15, !llvm.loop !429

29:                                               ; preds = %25, %15
  %30 = load i32, ptr %6, align 4, !tbaa !9
  %31 = icmp eq i32 %30, -1
  br i1 %31, label %32, label %33

32:                                               ; preds = %29
  store i32 -1, ptr %3, align 4
  store i32 1, ptr %7, align 4
  br label %90

33:                                               ; preds = %29
  call void @llvm.lifetime.start.p0(i64 4, ptr %8) #3
  %34 = load i32, ptr %6, align 4, !tbaa !9
  store i32 %34, ptr %8, align 4, !tbaa !9
  call void @llvm.lifetime.start.p0(i64 4, ptr %9) #3
  %35 = getelementptr inbounds nuw %"struct.faiss::HNSW::MinimaxHeap", ptr %11, i32 0, i32 4
  %36 = load i32, ptr %6, align 4, !tbaa !9
  %37 = sext i32 %36 to i64
  %38 = call noundef nonnull align 4 dereferenceable(4) ptr @_ZNSt6vectorIfSaIfEEixEm(ptr noundef nonnull align 8 dereferenceable(24) %35, i64 noundef %37) #3
  %39 = load float, ptr %38, align 4, !tbaa !70
  store float %39, ptr %9, align 4, !tbaa !70
  %40 = load i32, ptr %6, align 4, !tbaa !9
  %41 = add nsw i32 %40, -1
  store i32 %41, ptr %6, align 4, !tbaa !9
  br label %42

42:                                               ; preds = %67, %33
  %43 = load i32, ptr %6, align 4, !tbaa !9
  %44 = icmp sge i32 %43, 0
  br i1 %44, label %45, label %70

45:                                               ; preds = %42
  %46 = getelementptr inbounds nuw %"struct.faiss::HNSW::MinimaxHeap", ptr %11, i32 0, i32 3
  %47 = load i32, ptr %6, align 4, !tbaa !9
  %48 = sext i32 %47 to i64
  %49 = call noundef nonnull align 4 dereferenceable(4) ptr @_ZNSt6vectorIiSaIiEEixEm(ptr noundef nonnull align 8 dereferenceable(24) %46, i64 noundef %48) #3
  %50 = load i32, ptr %49, align 4, !tbaa !9
  %51 = icmp ne i32 %50, -1
  br i1 %51, label %52, label %67

52:                                               ; preds = %45
  %53 = getelementptr inbounds nuw %"struct.faiss::HNSW::MinimaxHeap", ptr %11, i32 0, i32 4
  %54 = load i32, ptr %6, align 4, !tbaa !9
  %55 = sext i32 %54 to i64
  %56 = call noundef nonnull align 4 dereferenceable(4) ptr @_ZNSt6vectorIfSaIfEEixEm(ptr noundef nonnull align 8 dereferenceable(24) %53, i64 noundef %55) #3
  %57 = load float, ptr %56, align 4, !tbaa !70
  %58 = load float, ptr %9, align 4, !tbaa !70
  %59 = fcmp olt float %57, %58
  br i1 %59, label %60, label %67

60:                                               ; preds = %52
  %61 = getelementptr inbounds nuw %"struct.faiss::HNSW::MinimaxHeap", ptr %11, i32 0, i32 4
  %62 = load i32, ptr %6, align 4, !tbaa !9
  %63 = sext i32 %62 to i64
  %64 = call noundef nonnull align 4 dereferenceable(4) ptr @_ZNSt6vectorIfSaIfEEixEm(ptr noundef nonnull align 8 dereferenceable(24) %61, i64 noundef %63) #3
  %65 = load float, ptr %64, align 4, !tbaa !70
  store float %65, ptr %9, align 4, !tbaa !70
  %66 = load i32, ptr %6, align 4, !tbaa !9
  store i32 %66, ptr %8, align 4, !tbaa !9
  br label %67

67:                                               ; preds = %60, %52, %45
  %68 = load i32, ptr %6, align 4, !tbaa !9
  %69 = add nsw i32 %68, -1
  store i32 %69, ptr %6, align 4, !tbaa !9
  br label %42, !llvm.loop !430

70:                                               ; preds = %42
  %71 = load ptr, ptr %5, align 8, !tbaa !314
  %72 = icmp ne ptr %71, null
  br i1 %72, label %73, label %76

73:                                               ; preds = %70
  %74 = load float, ptr %9, align 4, !tbaa !70
  %75 = load ptr, ptr %5, align 8, !tbaa !314
  store float %74, ptr %75, align 4, !tbaa !70
  br label %76

76:                                               ; preds = %73, %70
  call void @llvm.lifetime.start.p0(i64 4, ptr %10) #3
  %77 = getelementptr inbounds nuw %"struct.faiss::HNSW::MinimaxHeap", ptr %11, i32 0, i32 3
  %78 = load i32, ptr %8, align 4, !tbaa !9
  %79 = sext i32 %78 to i64
  %80 = call noundef nonnull align 4 dereferenceable(4) ptr @_ZNSt6vectorIiSaIiEEixEm(ptr noundef nonnull align 8 dereferenceable(24) %77, i64 noundef %79) #3
  %81 = load i32, ptr %80, align 4, !tbaa !9
  store i32 %81, ptr %10, align 4, !tbaa !9
  %82 = getelementptr inbounds nuw %"struct.faiss::HNSW::MinimaxHeap", ptr %11, i32 0, i32 3
  %83 = load i32, ptr %8, align 4, !tbaa !9
  %84 = sext i32 %83 to i64
  %85 = call noundef nonnull align 4 dereferenceable(4) ptr @_ZNSt6vectorIiSaIiEEixEm(ptr noundef nonnull align 8 dereferenceable(24) %82, i64 noundef %84) #3
  store i32 -1, ptr %85, align 4, !tbaa !9
  %86 = getelementptr inbounds nuw %"struct.faiss::HNSW::MinimaxHeap", ptr %11, i32 0, i32 2
  %87 = load i32, ptr %86, align 8, !tbaa !419
  %88 = add nsw i32 %87, -1
  store i32 %88, ptr %86, align 8, !tbaa !419
  %89 = load i32, ptr %10, align 4, !tbaa !9
  store i32 %89, ptr %3, align 4
  store i32 1, ptr %7, align 4
  call void @llvm.lifetime.end.p0(i64 4, ptr %10) #3
  call void @llvm.lifetime.end.p0(i64 4, ptr %9) #3
  call void @llvm.lifetime.end.p0(i64 4, ptr %8) #3
  br label %90

90:                                               ; preds = %76, %32
  call void @llvm.lifetime.end.p0(i64 4, ptr %6) #3
  %91 = load i32, ptr %3, align 4
  ret i32 %91
}