; Function Attrs: mustprogress nofree norecurse nosync nounwind memory(readwrite, inaccessiblemem: none) uwtable
define noundef i32 @_ZN5faiss4HNSW11MinimaxHeap7pop_minEPf(ptr noundef nonnull align 8 captures(none) dereferenceable(64) %0, ptr noundef writeonly captures(address_is_null) %1) local_unnamed_addr #17 align 2 {
  %3 = getelementptr inbounds nuw i8, ptr %0, i64 4
  %4 = load i32, ptr %3, align 4, !tbaa !218
  %5 = getelementptr inbounds nuw i8, ptr %0, i64 16
  %6 = load ptr, ptr %5, align 8
  %7 = zext i32 %4 to i64
  br label %8

8:                                                ; preds = %12, %2
  %indvars.iv = phi i64 [ %9, %12 ], [ %7, %2 ]
  %9 = add nsw i64 %indvars.iv, -1
  %10 = trunc nuw i64 %indvars.iv to i32
  %11 = icmp sgt i32 %10, 0
  br i1 %11, label %12, label %15

12:                                               ; preds = %8
  %13 = getelementptr inbounds nuw i32, ptr %6, i64 %9
  %14 = load i32, ptr %13, align 4, !tbaa !19
  %.not = icmp eq i32 %14, -1
  br i1 %.not, label %8, label %.thread, !llvm.loop !219

15:                                               ; preds = %8
  %16 = icmp eq i64 %indvars.iv, 0
  br i1 %16, label %48, label %.thread.thread

.thread.thread:                                   ; preds = %15
  %.0243846 = trunc i64 %9 to i32
  %17 = getelementptr inbounds nuw i8, ptr %0, i64 40
  %sext47 = shl i64 %9, 32
  %18 = load ptr, ptr %17, align 8, !tbaa !216
  %19 = ashr exact i64 %sext47, 30
  %20 = getelementptr inbounds nuw i8, ptr %18, i64 %19
  %21 = load float, ptr %20, align 4, !tbaa !127
  br label %._crit_edge

.thread:                                          ; preds = %12
  %.02438 = trunc i64 %9 to i32
  %22 = getelementptr inbounds nuw i8, ptr %0, i64 40
  %sext = shl i64 %9, 32
  %23 = load ptr, ptr %22, align 8, !tbaa !216
  %24 = ashr exact i64 %sext, 30
  %25 = getelementptr inbounds nuw i8, ptr %23, i64 %24
  %26 = load float, ptr %25, align 4, !tbaa !127
  %.not52 = icmp eq i64 %indvars.iv, 1
  br i1 %.not52, label %._crit_edge, label %.lr.ph

.lr.ph:                                           ; preds = %.thread
  %27 = add nuw nsw i64 %indvars.iv, 4294967294
  %28 = and i64 %27, 4294967295
  br label %29

29:                                               ; preds = %.lr.ph, %38
  %indvars.iv43 = phi i64 [ %28, %.lr.ph ], [ %indvars.iv.next44, %38 ]
  %.02135 = phi float [ %26, %.lr.ph ], [ %.1, %38 ]
  %.02234 = phi i32 [ %.02438, %.lr.ph ], [ %.123, %38 ]
  %30 = getelementptr inbounds nuw i32, ptr %6, i64 %indvars.iv43
  %31 = load i32, ptr %30, align 4, !tbaa !19
  %.not28 = icmp eq i32 %31, -1
  br i1 %.not28, label %38, label %32

32:                                               ; preds = %29
  %33 = getelementptr inbounds nuw float, ptr %23, i64 %indvars.iv43
  %34 = load float, ptr %33, align 4, !tbaa !127
  %35 = fcmp olt float %34, %.02135
  br i1 %35, label %36, label %38

36:                                               ; preds = %32
  %37 = trunc nuw nsw i64 %indvars.iv43 to i32
  br label %38

38:                                               ; preds = %36, %32, %29
  %.123 = phi i32 [ %37, %36 ], [ %.02234, %32 ], [ %.02234, %29 ]
  %.1 = phi float [ %34, %36 ], [ %.02135, %32 ], [ %.02135, %29 ]
  %indvars.iv.next44 = add nsw i64 %indvars.iv43, -1
  %39 = icmp sgt i64 %indvars.iv43, 0
  br i1 %39, label %29, label %._crit_edge, !llvm.loop !220

._crit_edge:                                      ; preds = %38, %.thread.thread, %.thread
  %.022.lcssa = phi i32 [ %.02438, %.thread ], [ %.0243846, %.thread.thread ], [ %.123, %38 ]
  %.021.lcssa = phi float [ %26, %.thread ], [ %21, %.thread.thread ], [ %.1, %38 ]
  %.not27 = icmp eq ptr %1, null
  br i1 %.not27, label %41, label %40

40:                                               ; preds = %._crit_edge
  store float %.021.lcssa, ptr %1, align 4, !tbaa !127
  br label %41

41:                                               ; preds = %40, %._crit_edge
  %42 = sext i32 %.022.lcssa to i64
  %43 = getelementptr inbounds nuw i32, ptr %6, i64 %42
  %44 = load i32, ptr %43, align 4, !tbaa !19
  store i32 -1, ptr %43, align 4, !tbaa !19
  %45 = getelementptr inbounds nuw i8, ptr %0, i64 8
  %46 = load i32, ptr %45, align 8, !tbaa !207
  %47 = add nsw i32 %46, -1
  store i32 %47, ptr %45, align 8, !tbaa !207
  br label %48

48:                                               ; preds = %15, %41
  %.0 = phi i32 [ %44, %41 ], [ -1, %15 ]
  ret i32 %.0
}